target datalayout = "e-m:e-p270:32:32-p271:32:32-p272:64:64-i64:64-i128:128-f80:128-n8:16:32:64-S128"
target triple = "x86_64-pc-linux-gnu"

%struct.slurm_step_layout = type { ptr, i32, ptr, ptr, ptr, i32, ptr, i16, i16, ptr, i32, i32, ptr }

@.str = private unnamed_addr constant [20 x i8] c"slurm_step_layout.c\00", align 1
@.str.1 = private unnamed_addr constant [95 x i8] c"there is a problem with your fake_step_layout request\0Anode_cnt = %u, task_cnt = %u, tlist = %s\00", align 1
@__func__.fake_slurm_step_layout_create = private unnamed_addr constant [30 x i8] c"fake_slurm_step_layout_create\00", align 1

; Function Attrs: nounwind uwtable
define dso_local ptr @fake_slurm_step_layout_create(ptr noundef %0, ptr noundef %1, ptr noundef %2, i32 noundef %3, i32 noundef %4, i16 noundef zeroext %5) #0 {
  %7 = alloca ptr, align 8
  %8 = alloca ptr, align 8
  %9 = alloca ptr, align 8
  %10 = alloca ptr, align 8
  %11 = alloca i32, align 4
  %12 = alloca i32, align 4
  %13 = alloca i16, align 2
  %14 = alloca i32, align 4
  %15 = alloca i32, align 4
  %16 = alloca i32, align 4
  %17 = alloca i32, align 4
  %18 = alloca i32, align 4
  %19 = alloca ptr, align 8
  %20 = alloca i32, align 4
  store ptr %0, ptr %8, align 8
  store ptr %1, ptr %9, align 8
  store ptr %2, ptr %10, align 8
  store i32 %3, ptr %11, align 4
  store i32 %4, ptr %12, align 4
  store i16 %5, ptr %13, align 2
  call void @llvm.lifetime.start.p0(i64 4, ptr %14) #7
  store i32 1, ptr %14, align 4
  call void @llvm.lifetime.start.p0(i64 4, ptr %15) #7
  store i32 0, ptr %15, align 4
  call void @llvm.lifetime.start.p0(i64 4, ptr %16) #7
  store i32 0, ptr %16, align 4
  call void @llvm.lifetime.start.p0(i64 4, ptr %17) #7
  call void @llvm.lifetime.start.p0(i64 4, ptr %18) #7
  call void @llvm.lifetime.start.p0(i64 8, ptr %19) #7
  store ptr null, ptr %19, align 8
  %21 = load i32, ptr %11, align 4
  %22 = icmp ne i32 %21, 0
  br i1 %22, label %23, label %35

23:                                               ; preds = %6
  %24 = load ptr, ptr %8, align 8
  %25 = icmp ne ptr %24, null
  br i1 %25, label %26, label %35

26:                                               ; preds = %23
  %27 = load ptr, ptr %9, align 8
  %28 = icmp ne ptr %27, null
  br i1 %28, label %40, label %29

29:                                               ; preds = %26
  %30 = load i32, ptr %12, align 4
  %31 = icmp ne i32 %30, 0
  br i1 %31, label %32, label %35

32:                                               ; preds = %29
  %33 = load i32, ptr %12, align 4
  %34 = icmp eq i32 %33, -2
  br i1 %34, label %35, label %40

35:                                               ; preds = %32, %29, %23, %6
  %36 = load i32, ptr %11, align 4
  %37 = load i32, ptr %12, align 4
  %38 = load ptr, ptr %8, align 8
  %39 = call i32 (ptr, ...) @error(ptr noundef @.str.1, i32 noundef %36, i32 noundef %37, ptr noundef %38)
  store ptr null, ptr %7, align 8
  store i32 1, ptr %20, align 4
  br label %242

40:                                               ; preds = %32, %26
  %41 = call ptr @slurm_xcalloc(i64 noundef 1, i64 noundef 88, i1 noundef zeroext true, i1 noundef zeroext false, ptr noundef @.str, i32 noundef 154, ptr noundef @__func__.fake_slurm_step_layout_create)
  store ptr %41, ptr %19, align 8
  %42 = load ptr, ptr %8, align 8
  %43 = call ptr @xstrdup(ptr noundef %42)
  %44 = load ptr, ptr %19, align 8
  %45 = getelementptr inbounds nuw %struct.slurm_step_layout, ptr %44, i32 0, i32 6
  store ptr %43, ptr %45, align 8
  %46 = load i32, ptr %11, align 4
  %47 = load ptr, ptr %19, align 8
  %48 = getelementptr inbounds nuw %struct.slurm_step_layout, ptr %47, i32 0, i32 5
  store i32 %46, ptr %48, align 8
  %49 = load i16, ptr %13, align 2
  %50 = load ptr, ptr %19, align 8
  %51 = getelementptr inbounds nuw %struct.slurm_step_layout, ptr %50, i32 0, i32 8
  store i16 %49, ptr %51, align 2
  %52 = load i32, ptr %11, align 4
  %53 = zext i32 %52 to i64
  %54 = call ptr @slurm_xcalloc(i64 noundef %53, i64 noundef 2, i1 noundef zeroext true, i1 noundef zeroext false, ptr noundef @.str, i32 noundef 158, ptr noundef @__func__.fake_slurm_step_layout_create)
  %55 = load ptr, ptr %19, align 8
  %56 = getelementptr inbounds nuw %struct.slurm_step_layout, ptr %55, i32 0, i32 9
  store ptr %54, ptr %56, align 8
  %57 = load i32, ptr %11, align 4
  %58 = zext i32 %57 to i64
  %59 = call ptr @slurm_xcalloc(i64 noundef %58, i64 noundef 8, i1 noundef zeroext true, i1 noundef zeroext false, ptr noundef @.str, i32 noundef 159, ptr noundef @__func__.fake_slurm_step_layout_create)
  %60 = load ptr, ptr %19, align 8
  %61 = getelementptr inbounds nuw %struct.slurm_step_layout, ptr %60, i32 0, i32 12
  store ptr %59, ptr %61, align 8
  %62 = load ptr, ptr %19, align 8
  %63 = getelementptr inbounds nuw %struct.slurm_step_layout, ptr %62, i32 0, i32 10
  store i32 0, ptr %63, align 8
  store i32 0, ptr %17, align 4
  br label %64

64:                                               ; preds = %237, %40
  %65 = load i32, ptr %17, align 4
  %66 = load ptr, ptr %19, align 8
  %67 = getelementptr inbounds nuw %struct.slurm_step_layout, ptr %66, i32 0, i32 5
  %68 = load i32, ptr %67, align 8
  %69 = icmp ult i32 %65, %68
  br i1 %69, label %70, label %240

70:                                               ; preds = %64
  %71 = load ptr, ptr %9, align 8
  %72 = icmp ne ptr %71, null
  br i1 %72, label %73, label %145

73:                                               ; preds = %70
  %74 = load ptr, ptr %10, align 8
  %75 = icmp ne ptr %74, null
  br i1 %75, label %76, label %145

76:                                               ; preds = %73
  %77 = load ptr, ptr %9, align 8
  %78 = load i32, ptr %16, align 4
  %79 = sext i32 %78 to i64
  %80 = getelementptr inbounds i16, ptr %77, i64 %79
  %81 = load i16, ptr %80, align 2
  %82 = load ptr, ptr %19, align 8
  %83 = getelementptr inbounds nuw %struct.slurm_step_layout, ptr %82, i32 0, i32 9
  %84 = load ptr, ptr %83, align 8
  %85 = load i32, ptr %17, align 4
  %86 = sext i32 %85 to i64
  %87 = getelementptr inbounds i16, ptr %84, i64 %86
  store i16 %81, ptr %87, align 2
  %88 = load ptr, ptr %19, align 8
  %89 = getelementptr inbounds nuw %struct.slurm_step_layout, ptr %88, i32 0, i32 9
  %90 = load ptr, ptr %89, align 8
  %91 = load i32, ptr %17, align 4
  %92 = sext i32 %91 to i64
  %93 = getelementptr inbounds i16, ptr %90, i64 %92
  %94 = load i16, ptr %93, align 2
  %95 = zext i16 %94 to i64
  %96 = call ptr @slurm_xcalloc(i64 noundef %95, i64 noundef 4, i1 noundef zeroext true, i1 noundef zeroext false, ptr noundef @.str, i32 noundef 166, ptr noundef @__func__.fake_slurm_step_layout_create)
  %97 = load ptr, ptr %19, align 8
  %98 = getelementptr inbounds nuw %struct.slurm_step_layout, ptr %97, i32 0, i32 12
  %99 = load ptr, ptr %98, align 8
  %100 = load i32, ptr %17, align 4
  %101 = sext i32 %100 to i64
  %102 = getelementptr inbounds ptr, ptr %99, i64 %101
  store ptr %96, ptr %102, align 8
  store i32 0, ptr %18, align 4
  br label %103

103:                                              ; preds = %129, %76
  %104 = load i32, ptr %18, align 4
  %105 = load ptr, ptr %19, align 8
  %106 = getelementptr inbounds nuw %struct.slurm_step_layout, ptr %105, i32 0, i32 9
  %107 = load ptr, ptr %106, align 8
  %108 = load i32, ptr %17, align 4
  %109 = sext i32 %108 to i64
  %110 = getelementptr inbounds i16, ptr %107, i64 %109
  %111 = load i16, ptr %110, align 2
  %112 = zext i16 %111 to i32
  %113 = icmp slt i32 %104, %112
  br i1 %113, label %114, label %132

114:                                              ; preds = %103
  %115 = load ptr, ptr %19, align 8
  %116 = getelementptr inbounds nuw %struct.slurm_step_layout, ptr %115, i32 0, i32 10
  %117 = load i32, ptr %116, align 8
  %118 = add i32 %117, 1
  store i32 %118, ptr %116, align 8
  %119 = load ptr, ptr %19, align 8
  %120 = getelementptr inbounds nuw %struct.slurm_step_layout, ptr %119, i32 0, i32 12
  %121 = load ptr, ptr %120, align 8
  %122 = load i32, ptr %17, align 4
  %123 = sext i32 %122 to i64
  %124 = getelementptr inbounds ptr, ptr %121, i64 %123
  %125 = load ptr, ptr %124, align 8
  %126 = load i32, ptr %18, align 4
  %127 = sext i32 %126 to i64
  %128 = getelementptr inbounds i32, ptr %125, i64 %127
  store i32 %117, ptr %128, align 4
  br label %129

129:                                              ; preds = %114
  %130 = load i32, ptr %18, align 4
  %131 = add nsw i32 %130, 1
  store i32 %131, ptr %18, align 4
  br label %103, !llvm.loop !14

132:                                              ; preds = %103
  %133 = load i32, ptr %15, align 4
  %134 = add nsw i32 %133, 1
  store i32 %134, ptr %15, align 4
  %135 = load ptr, ptr %10, align 8
  %136 = load i32, ptr %16, align 4
  %137 = sext i32 %136 to i64
  %138 = getelementptr inbounds i32, ptr %135, i64 %137
  %139 = load i32, ptr %138, align 4
  %140 = icmp uge i32 %134, %139
  br i1 %140, label %141, label %144

141:                                              ; preds = %132
  %142 = load i32, ptr %16, align 4
  %143 = add nsw i32 %142, 1
  store i32 %143, ptr %16, align 4
  store i32 0, ptr %15, align 4
  br label %144

144:                                              ; preds = %141, %132
  br label %236

145:                                              ; preds = %73, %70
  %146 = load i32, ptr %12, align 4
  %147 = load ptr, ptr %19, align 8
  %148 = getelementptr inbounds nuw %struct.slurm_step_layout, ptr %147, i32 0, i32 10
  %149 = load i32, ptr %148, align 8
  %150 = sub i32 %146, %149
  %151 = load i32, ptr %11, align 4
  %152 = load i32, ptr %17, align 4
  %153 = sub i32 %151, %152
  %154 = add i32 %150, %153
  %155 = sub i32 %154, 1
  %156 = load i32, ptr %11, align 4
  %157 = load i32, ptr %17, align 4
  %158 = sub i32 %156, %157
  %159 = udiv i32 %155, %158
  store i32 %159, ptr %14, align 4
  %160 = load ptr, ptr %19, align 8
  %161 = getelementptr inbounds nuw %struct.slurm_step_layout, ptr %160, i32 0, i32 10
  %162 = load i32, ptr %161, align 8
  %163 = load i32, ptr %12, align 4
  %164 = icmp uge i32 %162, %163
  br i1 %164, label %165, label %178

165:                                              ; preds = %145
  %166 = load ptr, ptr %19, align 8
  %167 = getelementptr inbounds nuw %struct.slurm_step_layout, ptr %166, i32 0, i32 9
  %168 = load ptr, ptr %167, align 8
  %169 = load i32, ptr %17, align 4
  %170 = sext i32 %169 to i64
  %171 = getelementptr inbounds i16, ptr %168, i64 %170
  store i16 0, ptr %171, align 2
  %172 = load ptr, ptr %19, align 8
  %173 = getelementptr inbounds nuw %struct.slurm_step_layout, ptr %172, i32 0, i32 12
  %174 = load ptr, ptr %173, align 8
  %175 = load i32, ptr %17, align 4
  %176 = sext i32 %175 to i64
  %177 = getelementptr inbounds ptr, ptr %174, i64 %176
  store ptr null, ptr %177, align 8
  br label %235

178:                                              ; preds = %145
  %179 = load i32, ptr %14, align 4
  %180 = trunc i32 %179 to i16
  %181 = load ptr, ptr %19, align 8
  %182 = getelementptr inbounds nuw %struct.slurm_step_layout, ptr %181, i32 0, i32 9
  %183 = load ptr, ptr %182, align 8
  %184 = load i32, ptr %17, align 4
  %185 = sext i32 %184 to i64
  %186 = getelementptr inbounds i16, ptr %183, i64 %185
  store i16 %180, ptr %186, align 2
  %187 = load i32, ptr %14, align 4
  %188 = zext i32 %187 to i64
  %189 = call ptr @slurm_xcalloc(i64 noundef %188, i64 noundef 4, i1 noundef zeroext true, i1 noundef zeroext false, ptr noundef @.str, i32 noundef 186, ptr noundef @__func__.fake_slurm_step_layout_create)
  %190 = load ptr, ptr %19, align 8
  %191 = getelementptr inbounds nuw %struct.slurm_step_layout, ptr %190, i32 0, i32 12
  %192 = load ptr, ptr %191, align 8
  %193 = load i32, ptr %17, align 4
  %194 = sext i32 %193 to i64
  %195 = getelementptr inbounds ptr, ptr %192, i64 %194
  store ptr %189, ptr %195, align 8
  store i32 0, ptr %18, align 4
  br label %196

196:                                              ; preds = %231, %178
  %197 = load i32, ptr %18, align 4
  %198 = load i32, ptr %14, align 4
  %199 = icmp ult i32 %197, %198
  br i1 %199, label %200, label %234

200:                                              ; preds = %196
  %201 = load ptr, ptr %19, align 8
  %202 = getelementptr inbounds nuw %struct.slurm_step_layout, ptr %201, i32 0, i32 10
  %203 = load i32, ptr %202, align 8
  %204 = add i32 %203, 1
  store i32 %204, ptr %202, align 8
  %205 = load ptr, ptr %19, align 8
  %206 = getelementptr inbounds nuw %struct.slurm_step_layout, ptr %205, i32 0, i32 12
  %207 = load ptr, ptr %206, align 8
  %208 = load i32, ptr %17, align 4
  %209 = sext i32 %208 to i64
  %210 = getelementptr inbounds ptr, ptr %207, i64 %209
  %211 = load ptr, ptr %210, align 8
  %212 = load i32, ptr %18, align 4
  %213 = sext i32 %212 to i64
  %214 = getelementptr inbounds i32, ptr %211, i64 %213
  store i32 %203, ptr %214, align 4
  %215 = load ptr, ptr %19, align 8
  %216 = getelementptr inbounds nuw %struct.slurm_step_layout, ptr %215, i32 0, i32 10
  %217 = load i32, ptr %216, align 8
  %218 = load i32, ptr %12, align 4
  %219 = icmp uge i32 %217, %218
  br i1 %219, label %220, label %230

220:                                              ; preds = %200
  %221 = load i32, ptr %18, align 4
  %222 = add nsw i32 %221, 1
  %223 = trunc i32 %222 to i16
  %224 = load ptr, ptr %19, align 8
  %225 = getelementptr inbounds nuw %struct.slurm_step_layout, ptr %224, i32 0, i32 9
  %226 = load ptr, ptr %225, align 8
  %227 = load i32, ptr %17, align 4
  %228 = sext i32 %227 to i64
  %229 = getelementptr inbounds i16, ptr %226, i64 %228
  store i16 %223, ptr %229, align 2
  br label %234

230:                                              ; preds = %200
  br label %231

231:                                              ; preds = %230
  %232 = load i32, ptr %18, align 4
  %233 = add nsw i32 %232, 1
  store i32 %233, ptr %18, align 4
  br label %196, !llvm.loop !15

234:                                              ; preds = %220, %196
  br label %235

235:                                              ; preds = %234, %165
  br label %236

236:                                              ; preds = %235, %144
  br label %237

237:                                              ; preds = %236
  %238 = load i32, ptr %17, align 4
  %239 = add nsw i32 %238, 1
  store i32 %239, ptr %17, align 4
  br label %64, !llvm.loop !16

240:                                              ; preds = %64
  %241 = load ptr, ptr %19, align 8
  store ptr %241, ptr %7, align 8
  store i32 1, ptr %20, align 4
  br label %242

242:                                              ; preds = %240, %35
  call void @llvm.lifetime.end.p0(i64 8, ptr %19) #7
  call void @llvm.lifetime.end.p0(i64 4, ptr %18) #7
  call void @llvm.lifetime.end.p0(i64 4, ptr %17) #7
  call void @llvm.lifetime.end.p0(i64 4, ptr %16) #7
  call void @llvm.lifetime.end.p0(i64 4, ptr %15) #7
  call void @llvm.lifetime.end.p0(i64 4, ptr %14) #7
  %243 = load ptr, ptr %7, align 8
  ret ptr %243
}