; Function Attrs: nounwind uwtable
define dso_local ptr @fake_slurm_step_layout_create(ptr noundef %0, ptr noundef readonly captures(address_is_null) %1, ptr noundef readonly captures(address_is_null) %2, i32 noundef %3, i32 noundef %4, i16 noundef zeroext %5) local_unnamed_addr #0 {
  %7 = icmp ne i32 %3, 0
  %8 = icmp ne ptr %0, null
  %or.cond = and i1 %8, %7
  br i1 %or.cond, label %9, label %12

9:                                                ; preds = %6
  %10 = icmp ne ptr %1, null
  br i1 %10, label %14, label %11

11:                                               ; preds = %9
  switch i32 %4, label %14 [
    i32 -2, label %12
    i32 0, label %12
  ]

12:                                               ; preds = %11, %11, %6
  %13 = tail call i32 (ptr, ...) @error(ptr noundef nonnull @.str.1, i32 noundef %3, i32 noundef %4, ptr noundef %0) #7
  br label %.loopexit95

14:                                               ; preds = %11, %9
  %15 = tail call ptr @slurm_xcalloc(i64 noundef 1, i64 noundef 88, i1 noundef zeroext true, i1 noundef zeroext false, ptr noundef nonnull @.str, i32 noundef 154, ptr noundef nonnull @__func__.fake_slurm_step_layout_create) #7
  %16 = tail call ptr @xstrdup(ptr noundef nonnull %0) #7
  %17 = getelementptr inbounds nuw i8, ptr %15, i64 48
  store ptr %16, ptr %17, align 8
  %18 = getelementptr inbounds nuw i8, ptr %15, i64 40
  store i32 %3, ptr %18, align 8
  %19 = getelementptr inbounds nuw i8, ptr %15, i64 58
  store i16 %5, ptr %19, align 2
  %20 = zext i32 %3 to i64
  %21 = tail call ptr @slurm_xcalloc(i64 noundef %20, i64 noundef 2, i1 noundef zeroext true, i1 noundef zeroext false, ptr noundef nonnull @.str, i32 noundef 158, ptr noundef nonnull @__func__.fake_slurm_step_layout_create) #7
  %22 = getelementptr inbounds nuw i8, ptr %15, i64 64
  store ptr %21, ptr %22, align 8
  %23 = tail call ptr @slurm_xcalloc(i64 noundef %20, i64 noundef 8, i1 noundef zeroext true, i1 noundef zeroext false, ptr noundef nonnull @.str, i32 noundef 159, ptr noundef nonnull @__func__.fake_slurm_step_layout_create) #7
  %24 = getelementptr inbounds nuw i8, ptr %15, i64 80
  store ptr %23, ptr %24, align 8
  %25 = getelementptr inbounds nuw i8, ptr %15, i64 72
  store i32 0, ptr %25, align 8
  %26 = load i32, ptr %18, align 8
  %.not105 = icmp eq i32 %26, 0
  br i1 %.not105, label %.loopexit95, label %.lr.ph104

.lr.ph104:                                        ; preds = %14
  %27 = icmp ne ptr %2, null
  %or.cond5 = and i1 %10, %27
  %28 = add i32 %4, -1
  br i1 %or.cond5, label %.lr.ph104.split.us.preheader, label %.lr.ph104.split

.lr.ph104.split.us.preheader:                     ; preds = %.lr.ph104
  %.pre120 = load ptr, ptr %22, align 8
  br label %.lr.ph104.split.us

.lr.ph104.split.us:                               ; preds = %.lr.ph104.split.us.preheader, %._crit_edge.us
  %29 = phi ptr [ %.pre120, %.lr.ph104.split.us.preheader ], [ %44, %._crit_edge.us ]
  %indvars.iv117 = phi i64 [ 0, %.lr.ph104.split.us.preheader ], [ %indvars.iv.next118, %._crit_edge.us ]
  %.081101.us = phi i32 [ 0, %.lr.ph104.split.us.preheader ], [ %spec.select94.us, %._crit_edge.us ]
  %.083100.us = phi i32 [ 0, %.lr.ph104.split.us.preheader ], [ %spec.select.us, %._crit_edge.us ]
  %30 = zext nneg i32 %.081101.us to i64
  %31 = getelementptr inbounds nuw i16, ptr %1, i64 %30
  %32 = load i16, ptr %31, align 2
  %33 = getelementptr inbounds nuw i16, ptr %29, i64 %indvars.iv117
  store i16 %32, ptr %33, align 2
  %34 = load ptr, ptr %22, align 8
  %35 = getelementptr inbounds nuw i16, ptr %34, i64 %indvars.iv117
  %36 = load i16, ptr %35, align 2
  %37 = zext i16 %36 to i64
  %38 = tail call ptr @slurm_xcalloc(i64 noundef %37, i64 noundef 4, i1 noundef zeroext true, i1 noundef zeroext false, ptr noundef nonnull @.str, i32 noundef 166, ptr noundef nonnull @__func__.fake_slurm_step_layout_create) #7
  %39 = load ptr, ptr %24, align 8
  %40 = getelementptr inbounds nuw ptr, ptr %39, i64 %indvars.iv117
  store ptr %38, ptr %40, align 8
  %41 = load ptr, ptr %22, align 8
  %42 = getelementptr inbounds nuw i16, ptr %41, i64 %indvars.iv117
  %43 = load i16, ptr %42, align 2
  %.not107 = icmp eq i16 %43, 0
  br i1 %.not107, label %._crit_edge.us, label %.lr.ph99.us

._crit_edge.us:                                   ; preds = %.lr.ph99.us, %.lr.ph104.split.us
  %44 = phi ptr [ %41, %.lr.ph104.split.us ], [ %58, %.lr.ph99.us ]
  %45 = add nsw i32 %.083100.us, 1
  %46 = getelementptr inbounds nuw i32, ptr %2, i64 %30
  %47 = load i32, ptr %46, align 4
  %.not93.us = icmp uge i32 %45, %47
  %spec.select.us = select i1 %.not93.us, i32 0, i32 %45
  %48 = zext i1 %.not93.us to i32
  %spec.select94.us = add nuw nsw i32 %.081101.us, %48
  %indvars.iv.next118 = add nuw nsw i64 %indvars.iv117, 1
  %49 = load i32, ptr %18, align 8
  %50 = zext i32 %49 to i64
  %51 = icmp samesign ult i64 %indvars.iv.next118, %50
  br i1 %51, label %.lr.ph104.split.us, label %.loopexit95, !llvm.loop !22

.lr.ph99.us:                                      ; preds = %.lr.ph104.split.us, %.lr.ph99.us
  %indvars.iv114 = phi i64 [ %indvars.iv.next115, %.lr.ph99.us ], [ 0, %.lr.ph104.split.us ]
  %52 = load i32, ptr %25, align 8
  %53 = add i32 %52, 1
  store i32 %53, ptr %25, align 8
  %54 = load ptr, ptr %24, align 8
  %55 = getelementptr inbounds nuw ptr, ptr %54, i64 %indvars.iv117
  %56 = load ptr, ptr %55, align 8
  %57 = getelementptr inbounds nuw i32, ptr %56, i64 %indvars.iv114
  store i32 %52, ptr %57, align 4
  %indvars.iv.next115 = add nuw nsw i64 %indvars.iv114, 1
  %58 = load ptr, ptr %22, align 8
  %59 = getelementptr inbounds nuw i16, ptr %58, i64 %indvars.iv117
  %60 = load i16, ptr %59, align 2
  %61 = zext i16 %60 to i64
  %62 = icmp samesign ult i64 %indvars.iv.next115, %61
  br i1 %62, label %.lr.ph99.us, label %._crit_edge.us, !llvm.loop !23

.lr.ph104.split:                                  ; preds = %.lr.ph104, %.loopexit
  %indvars.iv111 = phi i64 [ %indvars.iv.next112, %.loopexit ], [ 0, %.lr.ph104 ]
  %63 = load i32, ptr %25, align 8
  %.not = icmp ult i32 %63, %4
  br i1 %.not, label %69, label %64

64:                                               ; preds = %.lr.ph104.split
  %65 = load ptr, ptr %22, align 8
  %66 = getelementptr inbounds nuw i16, ptr %65, i64 %indvars.iv111
  store i16 0, ptr %66, align 2
  %67 = load ptr, ptr %24, align 8
  %68 = getelementptr inbounds nuw ptr, ptr %67, i64 %indvars.iv111
  store ptr null, ptr %68, align 8
  br label %.loopexit

69:                                               ; preds = %.lr.ph104.split
  %70 = trunc nuw nsw i64 %indvars.iv111 to i32
  %71 = sub i32 %3, %70
  %72 = add i32 %28, %71
  %73 = sub i32 %72, %63
  %74 = udiv i32 %73, %71
  %75 = trunc i32 %74 to i16
  %76 = load ptr, ptr %22, align 8
  %77 = getelementptr inbounds nuw i16, ptr %76, i64 %indvars.iv111
  store i16 %75, ptr %77, align 2
  %78 = zext i32 %74 to i64
  %79 = tail call ptr @slurm_xcalloc(i64 noundef %78, i64 noundef 4, i1 noundef zeroext true, i1 noundef zeroext false, ptr noundef nonnull @.str, i32 noundef 186, ptr noundef nonnull @__func__.fake_slurm_step_layout_create) #7
  %80 = load ptr, ptr %24, align 8
  %81 = getelementptr inbounds nuw ptr, ptr %80, i64 %indvars.iv111
  store ptr %79, ptr %81, align 8
  %.not106 = icmp ugt i32 %71, %73
  br i1 %.not106, label %.loopexit, label %.lr.ph.preheader

.lr.ph.preheader:                                 ; preds = %69
  %.pre = load i32, ptr %25, align 8
  br label %.lr.ph

.lr.ph:                                           ; preds = %.lr.ph.preheader, %94
  %82 = phi i32 [ %.pre, %.lr.ph.preheader ], [ %88, %94 ]
  %indvars.iv = phi i64 [ 0, %.lr.ph.preheader ], [ %indvars.iv.next, %94 ]
  %83 = add i32 %82, 1
  store i32 %83, ptr %25, align 8
  %84 = load ptr, ptr %24, align 8
  %85 = getelementptr inbounds nuw ptr, ptr %84, i64 %indvars.iv111
  %86 = load ptr, ptr %85, align 8
  %87 = getelementptr inbounds nuw i32, ptr %86, i64 %indvars.iv
  store i32 %82, ptr %87, align 4
  %88 = load i32, ptr %25, align 8
  %.not92 = icmp ult i32 %88, %4
  br i1 %.not92, label %94, label %89

89:                                               ; preds = %.lr.ph
  %90 = trunc i64 %indvars.iv to i16
  %91 = add i16 %90, 1
  %92 = load ptr, ptr %22, align 8
  %93 = getelementptr inbounds nuw i16, ptr %92, i64 %indvars.iv111
  store i16 %91, ptr %93, align 2
  br label %.loopexit

94:                                               ; preds = %.lr.ph
  %indvars.iv.next = add nuw nsw i64 %indvars.iv, 1
  %95 = icmp samesign ult i64 %indvars.iv.next, %78
  br i1 %95, label %.lr.ph, label %.loopexit, !llvm.loop !24

.loopexit:                                        ; preds = %94, %69, %89, %64
  %indvars.iv.next112 = add nuw nsw i64 %indvars.iv111, 1
  %96 = load i32, ptr %18, align 8
  %97 = zext i32 %96 to i64
  %98 = icmp samesign ult i64 %indvars.iv.next112, %97
  br i1 %98, label %.lr.ph104.split, label %.loopexit95, !llvm.loop !22

.loopexit95:                                      ; preds = %.loopexit, %._crit_edge.us, %14, %12
  %.085 = phi ptr [ null, %12 ], [ %15, %14 ], [ %15, %._crit_edge.us ], [ %15, %.loopexit ]
  ret ptr %.085
}